target datalayout = "e-m:e-p270:32:32-p271:32:32-p272:64:64-i64:64-i128:128-f80:128-n8:16:32:64-S128"
target triple = "x86_64-pc-linux-gnu"

%struct.decay_s = type { %struct.malloc_mutex_s, i8, %struct.atomic_zd_t, %struct.nstime_t, %struct.nstime_t, i64, %struct.nstime_t, i64, i64, [200 x i64], i64 }
%struct.malloc_mutex_s = type { %union.anon }
%union.anon = type { %struct.anon }
%struct.anon = type { %struct.mutex_prof_data_t, %struct.atomic_b_t, %union.pthread_mutex_t }
%struct.mutex_prof_data_t = type { %struct.nstime_t, %struct.nstime_t, i64, i64, i32, %struct.atomic_u32_t, i64, ptr, i64 }
%struct.atomic_u32_t = type { i32 }
%struct.atomic_b_t = type { i8 }
%union.pthread_mutex_t = type { %struct.__pthread_mutex_s }
%struct.__pthread_mutex_s = type { i32, i32, i32, i32, i32, i16, i16, %struct.__pthread_internal_list }
%struct.__pthread_internal_list = type { ptr, ptr }
%struct.atomic_zd_t = type { i64 }
%struct.nstime_t = type { i64 }

; Function Attrs: inlinehint nounwind uwtable
define internal i64 @decay_epoch_duration_ns(ptr noundef %0) #5 {
  %2 = alloca ptr, align 8
  store ptr %0, ptr %2, align 8, !tbaa !3
  %3 = load ptr, ptr %2, align 8, !tbaa !3
  %4 = getelementptr inbounds nuw %struct.decay_s, ptr %3, i32 0, i32 3
  %5 = call i64 @duckdb_je_nstime_ns(ptr noundef %4)
  ret i64 %5
}

; Function Attrs: nounwind uwtable
define i64 @duckdb_je_decay_npages_purge_in(ptr noundef %0, ptr noundef %1, i64 noundef %2) #0 {
  %4 = alloca ptr, align 8
  %5 = alloca ptr, align 8
  %6 = alloca i64, align 8
  %7 = alloca i64, align 8
  %8 = alloca i64, align 8
  %9 = alloca i64, align 8
  %10 = alloca i64, align 8
  store ptr %0, ptr %4, align 8, !tbaa !3
  store ptr %1, ptr %5, align 8, !tbaa !8
  store i64 %2, ptr %6, align 8, !tbaa !9
  call void @llvm.lifetime.start.p0(i64 8, ptr %7) #10
  %11 = load ptr, ptr %4, align 8, !tbaa !3
  %12 = call i64 @decay_epoch_duration_ns(ptr noundef %11)
  store i64 %12, ptr %7, align 8, !tbaa !9
  br label %13

13:                                               ; preds = %3
  br label %14

14:                                               ; preds = %13
  br label %15

15:                                               ; preds = %14
  call void @llvm.lifetime.start.p0(i64 8, ptr %8) #10
  %16 = load ptr, ptr %5, align 8, !tbaa !8
  %17 = call i64 @duckdb_je_nstime_ns(ptr noundef %16)
  %18 = load i64, ptr %7, align 8, !tbaa !9
  %19 = udiv i64 %17, %18
  store i64 %19, ptr %8, align 8, !tbaa !9
  call void @llvm.lifetime.start.p0(i64 8, ptr %9) #10
  %20 = load i64, ptr %8, align 8, !tbaa !9
  %21 = icmp uge i64 %20, 200
  br i1 %21, label %22, label %24

22:                                               ; preds = %15
  %23 = load i64, ptr %6, align 8, !tbaa !9
  store i64 %23, ptr %9, align 8, !tbaa !9
  br label %39

24:                                               ; preds = %15
  call void @llvm.lifetime.start.p0(i64 8, ptr %10) #10
  %25 = load i64, ptr getelementptr inbounds ([200 x i64], ptr @h_steps, i64 0, i64 199), align 8, !tbaa !9
  store i64 %25, ptr %10, align 8, !tbaa !9
  br label %26

26:                                               ; preds = %24
  br label %27

27:                                               ; preds = %26
  br label %28

28:                                               ; preds = %27
  %29 = load i64, ptr %6, align 8, !tbaa !9
  %30 = load i64, ptr %10, align 8, !tbaa !9
  %31 = load i64, ptr %8, align 8, !tbaa !9
  %32 = sub i64 199, %31
  %33 = getelementptr inbounds nuw [200 x i64], ptr @h_steps, i64 0, i64 %32
  %34 = load i64, ptr %33, align 8, !tbaa !9
  %35 = sub i64 %30, %34
  %36 = mul i64 %29, %35
  store i64 %36, ptr %9, align 8, !tbaa !9
  %37 = load i64, ptr %9, align 8, !tbaa !9
  %38 = lshr i64 %37, 24
  store i64 %38, ptr %9, align 8, !tbaa !9
  call void @llvm.lifetime.end.p0(i64 8, ptr %10) #10
  br label %39

39:                                               ; preds = %28, %22
  %40 = load i64, ptr %9, align 8, !tbaa !9
  call void @llvm.lifetime.end.p0(i64 8, ptr %9) #10
  call void @llvm.lifetime.end.p0(i64 8, ptr %8) #10
  call void @llvm.lifetime.end.p0(i64 8, ptr %7) #10
  ret i64 %40
}